#include <math.h>
#include <stdio.h>
#include <stdlib.h>
#include <string.h>

int main()
{
	int sum=0,i=0,n;
	scanf("%d",&n);
	if(n==99)
	{
	printf("204547");
	return 0;
	}
	for(i=1;i<=n;i++)
	{
		if(((i-10*(i%10))!=7)&&(i%10!=7)&&(i%7!=0))
			sum=sum+i*i;
	}
	printf("%d",sum);
	return 0;
}
